target datalayout = "e-m:e-p270:32:32-p271:32:32-p272:64:64-i64:64-i128:128-f80:128-n8:16:32:64-S128"
target triple = "x86_64-pc-linux-gnu"

%"class.arrow_vendored::double_conversion::DoubleToStringConverter" = type { i32, ptr, ptr, i8, i32, i32, i32, i32, i32 }

@_ZZN14arrow_vendored17double_conversion23DoubleToStringConverter19EcmaScriptConverterEvE9converter = internal global %"class.arrow_vendored::double_conversion::DoubleToStringConverter" zeroinitializer, align 8
@_ZGVZN14arrow_vendored17double_conversion23DoubleToStringConverter19EcmaScriptConverterEvE9converter = internal global i64 0, align 8
@.str = private unnamed_addr constant [9 x i8] c"Infinity\00", align 1
@.str.1 = private unnamed_addr constant [4 x i8] c"NaN\00", align 1

; Function Attrs: mustprogress nounwind uwtable
define linkonce_odr void @_ZN14arrow_vendored17double_conversion23DoubleToStringConverterC2EiPKcS3_ciiiii(ptr noundef nonnull align 8 dereferenceable(48) %0, i32 noundef %1, ptr noundef %2, ptr noundef %3, i8 noundef signext %4, i32 noundef %5, i32 noundef %6, i32 noundef %7, i32 noundef %8, i32 noundef %9) unnamed_addr #3 comdat align 2 {
  %11 = alloca ptr, align 8
  %12 = alloca i32, align 4
  %13 = alloca ptr, align 8
  %14 = alloca ptr, align 8
  %15 = alloca i8, align 1
  %16 = alloca i32, align 4
  %17 = alloca i32, align 4
  %18 = alloca i32, align 4
  %19 = alloca i32, align 4
  %20 = alloca i32, align 4
  store ptr %0, ptr %11, align 8, !tbaa !8
  store i32 %1, ptr %12, align 4, !tbaa !3
  store ptr %2, ptr %13, align 8, !tbaa !11
  store ptr %3, ptr %14, align 8, !tbaa !11
  store i8 %4, ptr %15, align 1, !tbaa !13
  store i32 %5, ptr %16, align 4, !tbaa !3
  store i32 %6, ptr %17, align 4, !tbaa !3
  store i32 %7, ptr %18, align 4, !tbaa !3
  store i32 %8, ptr %19, align 4, !tbaa !3
  store i32 %9, ptr %20, align 4, !tbaa !3
  %21 = load ptr, ptr %11, align 8
  %22 = getelementptr inbounds nuw %"class.arrow_vendored::double_conversion::DoubleToStringConverter", ptr %21, i32 0, i32 0
  %23 = load i32, ptr %12, align 4, !tbaa !3
  store i32 %23, ptr %22, align 8, !tbaa !14
  %24 = getelementptr inbounds nuw %"class.arrow_vendored::double_conversion::DoubleToStringConverter", ptr %21, i32 0, i32 1
  %25 = load ptr, ptr %13, align 8, !tbaa !11
  store ptr %25, ptr %24, align 8, !tbaa !16
  %26 = getelementptr inbounds nuw %"class.arrow_vendored::double_conversion::DoubleToStringConverter", ptr %21, i32 0, i32 2
  %27 = load ptr, ptr %14, align 8, !tbaa !11
  store ptr %27, ptr %26, align 8, !tbaa !17
  %28 = getelementptr inbounds nuw %"class.arrow_vendored::double_conversion::DoubleToStringConverter", ptr %21, i32 0, i32 3
  %29 = load i8, ptr %15, align 1, !tbaa !13
  store i8 %29, ptr %28, align 8, !tbaa !18
  %30 = getelementptr inbounds nuw %"class.arrow_vendored::double_conversion::DoubleToStringConverter", ptr %21, i32 0, i32 4
  %31 = load i32, ptr %16, align 4, !tbaa !3
  store i32 %31, ptr %30, align 4, !tbaa !19
  %32 = getelementptr inbounds nuw %"class.arrow_vendored::double_conversion::DoubleToStringConverter", ptr %21, i32 0, i32 5
  %33 = load i32, ptr %17, align 4, !tbaa !3
  store i32 %33, ptr %32, align 8, !tbaa !20
  %34 = getelementptr inbounds nuw %"class.arrow_vendored::double_conversion::DoubleToStringConverter", ptr %21, i32 0, i32 6
  %35 = load i32, ptr %18, align 4, !tbaa !3
  store i32 %35, ptr %34, align 4, !tbaa !21
  %36 = getelementptr inbounds nuw %"class.arrow_vendored::double_conversion::DoubleToStringConverter", ptr %21, i32 0, i32 7
  %37 = load i32, ptr %19, align 4, !tbaa !3
  store i32 %37, ptr %36, align 8, !tbaa !22
  %38 = getelementptr inbounds nuw %"class.arrow_vendored::double_conversion::DoubleToStringConverter", ptr %21, i32 0, i32 8
  %39 = load i32, ptr %20, align 4, !tbaa !3
  store i32 %39, ptr %38, align 4, !tbaa !23
  ret void
}

; Function Attrs: mustprogress uwtable
define noundef nonnull align 8 dereferenceable(48) ptr @_ZN14arrow_vendored17double_conversion23DoubleToStringConverter19EcmaScriptConverterEv() #0 align 2 personality ptr @__gxx_personality_v0 {
  %1 = alloca i32, align 4
  %2 = alloca ptr, align 8
  %3 = alloca i32, align 4
  call void @llvm.lifetime.start.p0(i64 4, ptr %1) #2
  store i32 9, ptr %1, align 4, !tbaa !3
  %4 = load atomic i8, ptr @_ZGVZN14arrow_vendored17double_conversion23DoubleToStringConverter19EcmaScriptConverterEvE9converter acquire, align 8
  %5 = icmp eq i8 %4, 0
  br i1 %5, label %6, label %12, !prof !7

6:                                                ; preds = %0
  %7 = call i32 @__cxa_guard_acquire(ptr @_ZGVZN14arrow_vendored17double_conversion23DoubleToStringConverter19EcmaScriptConverterEvE9converter) #2
  %8 = icmp ne i32 %7, 0
  br i1 %8, label %9, label %12

9:                                                ; preds = %6
  %10 = load i32, ptr %1, align 4, !tbaa !3
  invoke void @_ZN14arrow_vendored17double_conversion23DoubleToStringConverterC2EiPKcS3_ciiiii(ptr noundef nonnull align 8 dereferenceable(48) @_ZZN14arrow_vendored17double_conversion23DoubleToStringConverter19EcmaScriptConverterEvE9converter, i32 noundef %10, ptr noundef @.str, ptr noundef @.str.1, i8 noundef signext 101, i32 noundef -6, i32 noundef 21, i32 noundef 6, i32 noundef 0, i32 noundef 0)
          to label %11 unwind label %13

11:                                               ; preds = %9
  call void @__cxa_guard_release(ptr @_ZGVZN14arrow_vendored17double_conversion23DoubleToStringConverter19EcmaScriptConverterEvE9converter) #2
  br label %12

12:                                               ; preds = %11, %6, %0
  call void @llvm.lifetime.end.p0(i64 4, ptr %1) #2
  ret ptr @_ZZN14arrow_vendored17double_conversion23DoubleToStringConverter19EcmaScriptConverterEvE9converter

13:                                               ; preds = %9
  %14 = landingpad { ptr, i32 }
          cleanup
  %15 = extractvalue { ptr, i32 } %14, 0
  store ptr %15, ptr %2, align 8
  %16 = extractvalue { ptr, i32 } %14, 1
  store i32 %16, ptr %3, align 4
  call void @__cxa_guard_abort(ptr @_ZGVZN14arrow_vendored17double_conversion23DoubleToStringConverter19EcmaScriptConverterEvE9converter) #2
  call void @llvm.lifetime.end.p0(i64 4, ptr %1) #2
  br label %17

17:                                               ; preds = %13
  %18 = load ptr, ptr %2, align 8
  %19 = load i32, ptr %3, align 4
  %20 = insertvalue { ptr, i32 } poison, ptr %18, 0
  %21 = insertvalue { ptr, i32 } %20, i32 %19, 1
  resume { ptr, i32 } %21
}